target datalayout = "e-m:e-p270:32:32-p271:32:32-p272:64:64-i64:64-i128:128-f80:128-n8:16:32:64-S128"
target triple = "x86_64-pc-linux-gnu"

%"class.pxrInternal_v0_24__pxrReserved__::TfSmallVector.1" = type { %"union.pxrInternal_v0_24__pxrReserved__::TfSmallVectorBase::_DataUnion.2", i32, i32 }
%"union.pxrInternal_v0_24__pxrReserved__::TfSmallVectorBase::_DataUnion.2" = type { ptr, [120 x i8] }
%"class.pxrInternal_v0_24__pxrReserved__::TfSmallVector.20" = type { %"union.pxrInternal_v0_24__pxrReserved__::TfSmallVectorBase::_DataUnion.21", i32, i32 }
%"union.pxrInternal_v0_24__pxrReserved__::TfSmallVectorBase::_DataUnion.21" = type { ptr, [248 x i8] }

; Function Attrs: mustprogress nounwind uwtable
define linkonce_odr void @_ZN32pxrInternal_v0_24__pxrReserved__13TfSmallVectorINS_20HdSceneIndexObserver14AddedPrimEntryELj16EEC2Ev(ptr noundef nonnull align 8 dereferenceable(264) %0) unnamed_addr #0 comdat align 2 {
  %2 = alloca ptr, align 8
  store ptr %0, ptr %2, align 8
  %3 = load ptr, ptr %2, align 8
  %4 = getelementptr inbounds nuw %"class.pxrInternal_v0_24__pxrReserved__::TfSmallVector.20", ptr %3, i32 0, i32 1
  store i32 0, ptr %4, align 8
  %5 = getelementptr inbounds nuw %"class.pxrInternal_v0_24__pxrReserved__::TfSmallVector.20", ptr %3, i32 0, i32 2
  store i32 16, ptr %5, align 4
  ret void
}

; Function Attrs: mustprogress nounwind uwtable
define linkonce_odr void @_ZN32pxrInternal_v0_24__pxrReserved__13TfSmallVectorINS_20HdSceneIndexObserver16RemovedPrimEntryELj16EEC2Ev(ptr noundef nonnull align 8 dereferenceable(136) %0) unnamed_addr #0 comdat align 2 {
  %2 = alloca ptr, align 8
  store ptr %0, ptr %2, align 8
  %3 = load ptr, ptr %2, align 8
  %4 = getelementptr inbounds nuw %"class.pxrInternal_v0_24__pxrReserved__::TfSmallVector.1", ptr %3, i32 0, i32 1
  store i32 0, ptr %4, align 8
  %5 = getelementptr inbounds nuw %"class.pxrInternal_v0_24__pxrReserved__::TfSmallVector.1", ptr %3, i32 0, i32 2
  store i32 16, ptr %5, align 4
  ret void
}

; Function Attrs: mustprogress uwtable
define void @_ZN32pxrInternal_v0_24__pxrReserved__20HdSceneIndexObserver36ConvertPrimsRenamedToRemovedAndAddedERKNS_16HdSceneIndexBaseERKNS_13TfSmallVectorINS0_16RenamedPrimEntryELj16EEEPS0_(ptr noundef nonnull align 8 dereferenceable(120) %0, ptr noundef nonnull align 8 dereferenceable(264) %1, ptr noundef %2) #2 align 2 personality ptr @__gxx_personality_v0 {
  %4 = alloca ptr, align 8
  %5 = alloca ptr, align 8
  %6 = alloca ptr, align 8
  %7 = alloca %"class.pxrInternal_v0_24__pxrReserved__::TfSmallVector.1", align 8
  %8 = alloca %"class.pxrInternal_v0_24__pxrReserved__::TfSmallVector.20", align 8
  %9 = alloca ptr, align 8
  %10 = alloca i32, align 4
  store ptr %0, ptr %4, align 8
  store ptr %1, ptr %5, align 8
  store ptr %2, ptr %6, align 8
  call void @_ZN32pxrInternal_v0_24__pxrReserved__13TfSmallVectorINS_20HdSceneIndexObserver16RemovedPrimEntryELj16EEC2Ev(ptr noundef nonnull align 8 dereferenceable(136) %7)
  invoke void @_ZN32pxrInternal_v0_24__pxrReserved__13TfSmallVectorINS_20HdSceneIndexObserver14AddedPrimEntryELj16EEC2Ev(ptr noundef nonnull align 8 dereferenceable(264) %8)
          to label %11 unwind label %27

11:                                               ; preds = %3
  %12 = load ptr, ptr %4, align 8
  %13 = load ptr, ptr %5, align 8
  invoke void @_ZN32pxrInternal_v0_24__pxrReserved__20HdSceneIndexObserver36ConvertPrimsRenamedToRemovedAndAddedERKNS_16HdSceneIndexBaseERKNS_13TfSmallVectorINS0_16RenamedPrimEntryELj16EEEPNS4_INS0_16RemovedPrimEntryELj16EEEPNS4_INS0_14AddedPrimEntryELj16EEE(ptr noundef nonnull align 8 dereferenceable(120) %12, ptr noundef nonnull align 8 dereferenceable(264) %13, ptr noundef %7, ptr noundef %8)
          to label %14 unwind label %31

14:                                               ; preds = %11
  %15 = load ptr, ptr %6, align 8
  %16 = load ptr, ptr %4, align 8
  %17 = load ptr, ptr %15, align 8
  %18 = getelementptr inbounds ptr, ptr %17, i64 3
  %19 = load ptr, ptr %18, align 8
  invoke void %19(ptr noundef nonnull align 8 dereferenceable(16) %15, ptr noundef nonnull align 8 dereferenceable(120) %16, ptr noundef nonnull align 8 dereferenceable(136) %7)
          to label %20 unwind label %31

20:                                               ; preds = %14
  %21 = load ptr, ptr %6, align 8
  %22 = load ptr, ptr %4, align 8
  %23 = load ptr, ptr %21, align 8
  %24 = getelementptr inbounds ptr, ptr %23, i64 2
  %25 = load ptr, ptr %24, align 8
  invoke void %25(ptr noundef nonnull align 8 dereferenceable(16) %21, ptr noundef nonnull align 8 dereferenceable(120) %22, ptr noundef nonnull align 8 dereferenceable(264) %8)
          to label %26 unwind label %31

26:                                               ; preds = %20
  call void @_ZN32pxrInternal_v0_24__pxrReserved__13TfSmallVectorINS_20HdSceneIndexObserver14AddedPrimEntryELj16EED2Ev(ptr noundef nonnull align 8 dereferenceable(264) %8) #13
  call void @_ZN32pxrInternal_v0_24__pxrReserved__13TfSmallVectorINS_20HdSceneIndexObserver16RemovedPrimEntryELj16EED2Ev(ptr noundef nonnull align 8 dereferenceable(136) %7) #13
  ret void

27:                                               ; preds = %3
  %28 = landingpad { ptr, i32 }
          cleanup
  %29 = extractvalue { ptr, i32 } %28, 0
  store ptr %29, ptr %9, align 8
  %30 = extractvalue { ptr, i32 } %28, 1
  store i32 %30, ptr %10, align 4
  br label %35

31:                                               ; preds = %20, %14, %11
  %32 = landingpad { ptr, i32 }
          cleanup
  %33 = extractvalue { ptr, i32 } %32, 0
  store ptr %33, ptr %9, align 8
  %34 = extractvalue { ptr, i32 } %32, 1
  store i32 %34, ptr %10, align 4
  call void @_ZN32pxrInternal_v0_24__pxrReserved__13TfSmallVectorINS_20HdSceneIndexObserver14AddedPrimEntryELj16EED2Ev(ptr noundef nonnull align 8 dereferenceable(264) %8) #13
  br label %35

35:                                               ; preds = %31, %27
  call void @_ZN32pxrInternal_v0_24__pxrReserved__13TfSmallVectorINS_20HdSceneIndexObserver16RemovedPrimEntryELj16EED2Ev(ptr noundef nonnull align 8 dereferenceable(136) %7) #13
  br label %36

36:                                               ; preds = %35
  %37 = load ptr, ptr %9, align 8
  %38 = load i32, ptr %10, align 4
  %39 = insertvalue { ptr, i32 } poison, ptr %37, 0
  %40 = insertvalue { ptr, i32 } %39, i32 %38, 1
  resume { ptr, i32 } %40
}